Certificate:
    Data:
        Version: 3 (0x2)
        Serial Number:
            39:b8:da:12:aa:c7:8b:d4:2e:b6:9a:7d:94:e0:61:e8:64:ba:bd:6f
        Signature Algorithm: sha256WithRSAEncryption
        Issuer: CN = localhost
        Validity
            Not Before: Jul 22 16:34:56 2025 GMT
            Not After : Jul 22 16:34:56 2026 GMT
        Subject: CN = localhost
        Subject Public Key Info:
            Public Key Algorithm: rsaEncryption
                Public-Key: (2048 bit)
                Modulus:
                    00:bb:a9:1e:f8:99:d1:75:8f:01:29:95:b2:6c:ff:
                    5c:f2:56:ab:7a:8a:8c:1b:2d:da:4c:7f:96:d2:96:
                    53:4d:a3:1b:41:6d:9c:24:13:3c:00:3d:62:ef:38:
                    d6:46:c7:14:4c:61:e5:80:1d:cc:66:bc:3a:44:bf:
                    ba:b2:6a:01:4d:29:e4:5e:b4:21:92:1f:cd:ca:b0:
                    05:44:e6:31:3d:61:19:8e:15:50:3c:bd:a3:97:b4:
                    aa:3d:02:a4:d2:bf:07:08:6d:c2:80:93:dc:78:17:
                    08:0f:35:c6:50:46:7d:a3:a7:68:5b:a1:5a:3d:b2:
                    a9:8e:08:d4:5c:9e:0a:12:4f:f5:bc:71:b7:e7:21:
                    8a:d8:56:ad:54:86:ff:2c:a0:b4:14:c3:a1:3f:89:
                    61:91:d8:08:59:35:87:e9:f1:77:13:c2:2a:a0:26:
                    28:e8:93:ca:9c:b0:1c:0a:60:f0:22:49:ee:f7:69:
                    13:89:42:ea:cf:5d:69:7e:74:e8:28:24:f8:bd:fd:
                    70:0d:03:85:82:69:cc:13:31:8c:9f:46:05:0d:40:
                    79:a1:e9:77:41:07:ef:33:3a:02:90:0b:c1:c5:25:
                    14:8b:6e:01:6d:da:53:e3:e5:90:47:7b:19:d8:3e:
                    34:ef:3b:74:ec:a3:8c:e4:db:c9:0e:53:0e:ec:c0:
                    1b:69
                Exponent: 65537 (0x10001)
        X509v3 extensions:
            X509v3 Subject Key Identifier: 
                1E:51:72:9B:52:B1:8E:38:5B:09:38:19:C9:61:5D:7F:82:A6:D6:B3
            X509v3 Authority Key Identifier: 
                1E:51:72:9B:52:B1:8E:38:5B:09:38:19:C9:61:5D:7F:82:A6:D6:B3
            X509v3 Basic Constraints: critical
                CA:TRUE
    Signature Algorithm: sha256WithRSAEncryption
    Signature Value:
        6b:ce:8d:e4:c1:04:4f:d0:af:af:83:51:71:ba:68:14:34:7e:
        94:0d:d9:97:e8:b2:11:05:52:6a:b0:5f:f1:62:93:87:a2:e9:
        b0:a5:c1:0a:07:3f:c6:70:bb:79:51:16:32:7f:d2:dd:29:8b:
        d4:d6:86:ec:ed:5c:a2:07:1f:1e:e7:67:c3:cf:08:73:e1:bf:
        60:a2:9d:c0:51:66:d2:36:eb:ed:ff:be:75:03:1c:16:46:83:
        5e:a7:38:bb:95:34:1a:21:4a:50:0a:71:87:0c:da:df:0f:c2:
        5e:69:e7:ed:e7:ff:61:5f:0e:ed:33:bf:e8:58:ac:c9:04:f6:
        e9:94:8e:f2:13:3e:da:1a:8e:b1:96:74:2a:ee:f9:e9:ab:88:
        99:b1:70:53:83:46:49:03:73:ab:df:67:94:a6:5c:04:48:57:
        8f:e5:fc:01:ae:4d:4a:86:41:2b:4b:c0:70:8d:4e:33:28:2e:
        e8:4c:ca:8a:94:8a:08:b2:ab:37:cc:38:dc:01:47:4e:83:e9:
        93:6b:52:92:b0:82:01:5c:ba:c1:f9:73:14:92:62:04:f1:69:
        05:88:69:a2:19:30:17:56:70:83:55:ff:7d:0e:78:0c:53:c2:
        26:59:7f:32:0f:e1:ae:ad:27:a8:9e:aa:bf:a4:c5:52:a0:f2:
        d2:5e:42:ed
-----BEGIN CERTIFICATE-----
MIIDCTCCAfGgAwIBAgIUObjaEqrHi9Qutpp9lOBh6GS6vW8wDQYJKoZIhvcNAQEL
BQAwFDESMBAGA1UEAwwJbG9jYWxob3N0MB4XDTI1MDcyMjE2MzQ1NloXDTI2MDcy
MjE2MzQ1NlowFDESMBAGA1UEAwwJbG9jYWxob3N0MIIBIjANBgkqhkiG9w0BAQEF
AAOCAQ8AMIIBCgKCAQEAu6ke+JnRdY8BKZWybP9c8lareoqMGy3aTH+W0pZTTaMb
QW2cJBM8AD1i7zjWRscUTGHlgB3MZrw6RL+6smoBTSnkXrQhkh/NyrAFROYxPWEZ
jhVQPL2jl7SqPQKk0r8HCG3CgJPceBcIDzXGUEZ9o6doW6FaPbKpjgjUXJ4KEk/1
vHG35yGK2FatVIb/LKC0FMOhP4lhkdgIWTWH6fF3E8IqoCYo6JPKnLAcCmDwIknu
92kTiULqz11pfnToKCT4vf1wDQOFgmnMEzGMn0YFDUB5oel3QQfvMzoCkAvBxSUU
i24BbdpT4+WQR3sZ2D407zt07KOM5NvJDlMO7MAbaQIDAQABo1MwUTAdBgNVHQ4E
FgQUHlFym1KxjjhbCTgZyWFdf4Km1rMwHwYDVR0jBBgwFoAUHlFym1KxjjhbCTgZ
yWFdf4Km1rMwDwYDVR0TAQH/BAUwAwEB/zANBgkqhkiG9w0BAQsFAAOCAQEAa86N
5MEET9Cvr4NRcbpoFDR+lA3Zl+iyEQVSarBf8WKTh6LpsKXBCgc/xnC7eVEWMn/S
3SmL1NaG7O1cogcfHudnw88Ic+G/YKKdwFFm0jbr7f++dQMcFkaDXqc4u5U0GiFK
UApxhwza3w/CXmnn7ef/YV8O7TO/6FisyQT26ZSO8hM+2hqOsZZ0Ku756auImbFw
U4NGSQNzq99nlKZcBEhXj+X8Aa5NSoZBK0vAcI1OMygu6EzKipSKCLKrN8w43AFH
ToPpk2tSkrCCAVy6wflzFJJiBPFpBYhpohkwF1Zwg1X/fQ54DFPCJll/Mg/hrq0n
qJ6qv6TFUqDy0l5C7Q==
-----END CERTIFICATE-----
